target datalayout = "e-m:e-p270:32:32-p271:32:32-p272:64:64-i64:64-i128:128-f80:128-n8:16:32:64-S128"
target triple = "x86_64-unknown-linux-gnu"

%struct.Node = type { i32, ptr, ptr, ptr, ptr, ptr, ptr, ptr, ptr, ptr, ptr, ptr, ptr, ptr, ptr, ptr, ptr, i8, ptr, ptr, ptr, ptr, ptr, ptr, i64, i64, ptr, ptr, ptr, ptr, ptr, ptr, ptr, i64, x86_fp80 }
%struct.Token = type { i32, ptr, i64, x86_fp80, ptr, i32, ptr, ptr, ptr, ptr, i32, i32, i8, i8, ptr, ptr }

@.str.20 = private unnamed_addr constant [2 x i8] c"*\00", align 1
@.str.21 = private unnamed_addr constant [2 x i8] c"/\00", align 1
@.str.22 = private unnamed_addr constant [2 x i8] c"%\00", align 1

; Function Attrs: nounwind uwtable
define internal ptr @new_node(i32 noundef %kind, ptr noundef %tok) #0 {
entry:
  %kind.addr = alloca i32, align 4
  %tok.addr = alloca ptr, align 8
  %node = alloca ptr, align 8
  store i32 %kind, ptr %kind.addr, align 4
  store ptr %tok, ptr %tok.addr, align 8
  %call = call noalias ptr @calloc(i64 noundef 1, i64 noundef 288) #8
  store ptr %call, ptr %node, align 8
  %0 = load i32, ptr %kind.addr, align 4
  %1 = load ptr, ptr %node, align 8
  %kind1 = getelementptr inbounds %struct.Node, ptr %1, i32 0, i32 0
  store i32 %0, ptr %kind1, align 16
  %2 = load ptr, ptr %tok.addr, align 8
  %3 = load ptr, ptr %node, align 8
  %tok2 = getelementptr inbounds %struct.Node, ptr %3, i32 0, i32 3
  store ptr %2, ptr %tok2, align 8
  %4 = load ptr, ptr %node, align 8
  ret ptr %4
}

; Function Attrs: nounwind uwtable
define internal ptr @new_binary(i32 noundef %kind, ptr noundef %lhs, ptr noundef %rhs, ptr noundef %tok) #0 {
entry:
  %kind.addr = alloca i32, align 4
  %lhs.addr = alloca ptr, align 8
  %rhs.addr = alloca ptr, align 8
  %tok.addr = alloca ptr, align 8
  %node = alloca ptr, align 8
  store i32 %kind, ptr %kind.addr, align 4
  store ptr %lhs, ptr %lhs.addr, align 8
  store ptr %rhs, ptr %rhs.addr, align 8
  store ptr %tok, ptr %tok.addr, align 8
  %0 = load i32, ptr %kind.addr, align 4
  %1 = load ptr, ptr %tok.addr, align 8
  %call = call ptr @new_node(i32 noundef %0, ptr noundef %1)
  store ptr %call, ptr %node, align 8
  %2 = load ptr, ptr %lhs.addr, align 8
  %3 = load ptr, ptr %node, align 8
  %lhs1 = getelementptr inbounds %struct.Node, ptr %3, i32 0, i32 4
  store ptr %2, ptr %lhs1, align 16
  %4 = load ptr, ptr %rhs.addr, align 8
  %5 = load ptr, ptr %node, align 8
  %rhs2 = getelementptr inbounds %struct.Node, ptr %5, i32 0, i32 5
  store ptr %4, ptr %rhs2, align 8
  %6 = load ptr, ptr %node, align 8
  ret ptr %6
}

; Function Attrs: nounwind uwtable
define internal ptr @mul(ptr noundef %rest, ptr noundef %tok) #0 {
entry:
  %rest.addr = alloca ptr, align 8
  %tok.addr = alloca ptr, align 8
  %node = alloca ptr, align 8
  %start = alloca ptr, align 8
  store ptr %rest, ptr %rest.addr, align 8
  store ptr %tok, ptr %tok.addr, align 8
  %0 = load ptr, ptr %tok.addr, align 8
  %call = call ptr @cast(ptr noundef %tok.addr, ptr noundef %0)
  store ptr %call, ptr %node, align 8
  br label %for.cond

for.cond:                                         ; preds = %if.then11, %if.then5, %if.then, %entry
  %1 = load ptr, ptr %tok.addr, align 8
  store ptr %1, ptr %start, align 8
  %2 = load ptr, ptr %tok.addr, align 8
  %call1 = call zeroext i1 @equal(ptr noundef %2, ptr noundef @.str.20)
  br i1 %call1, label %if.then, label %if.end

if.then:                                          ; preds = %for.cond
  %3 = load ptr, ptr %node, align 8
  %4 = load ptr, ptr %tok.addr, align 8
  %next = getelementptr inbounds %struct.Token, ptr %4, i32 0, i32 1
  %5 = load ptr, ptr %next, align 8
  %call2 = call ptr @cast(ptr noundef %tok.addr, ptr noundef %5)
  %6 = load ptr, ptr %start, align 8
  %call3 = call ptr @new_binary(i32 noundef 3, ptr noundef %3, ptr noundef %call2, ptr noundef %6)
  store ptr %call3, ptr %node, align 8
  br label %for.cond

if.end:                                           ; preds = %for.cond
  %7 = load ptr, ptr %tok.addr, align 8
  %call4 = call zeroext i1 @equal(ptr noundef %7, ptr noundef @.str.21)
  br i1 %call4, label %if.then5, label %if.end9

if.then5:                                         ; preds = %if.end
  %8 = load ptr, ptr %node, align 8
  %9 = load ptr, ptr %tok.addr, align 8
  %next6 = getelementptr inbounds %struct.Token, ptr %9, i32 0, i32 1
  %10 = load ptr, ptr %next6, align 8
  %call7 = call ptr @cast(ptr noundef %tok.addr, ptr noundef %10)
  %11 = load ptr, ptr %start, align 8
  %call8 = call ptr @new_binary(i32 noundef 4, ptr noundef %8, ptr noundef %call7, ptr noundef %11)
  store ptr %call8, ptr %node, align 8
  br label %for.cond

if.end9:                                          ; preds = %if.end
  %12 = load ptr, ptr %tok.addr, align 8
  %call10 = call zeroext i1 @equal(ptr noundef %12, ptr noundef @.str.22)
  br i1 %call10, label %if.then11, label %if.end15

if.then11:                                        ; preds = %if.end9
  %13 = load ptr, ptr %node, align 8
  %14 = load ptr, ptr %tok.addr, align 8
  %next12 = getelementptr inbounds %struct.Token, ptr %14, i32 0, i32 1
  %15 = load ptr, ptr %next12, align 8
  %call13 = call ptr @cast(ptr noundef %tok.addr, ptr noundef %15)
  %16 = load ptr, ptr %start, align 8
  %call14 = call ptr @new_binary(i32 noundef 6, ptr noundef %13, ptr noundef %call13, ptr noundef %16)
  store ptr %call14, ptr %node, align 8
  br label %for.cond

if.end15:                                         ; preds = %if.end9
  %17 = load ptr, ptr %tok.addr, align 8
  %18 = load ptr, ptr %rest.addr, align 8
  store ptr %17, ptr %18, align 8
  %19 = load ptr, ptr %node, align 8
  ret ptr %19
}