; Function Attrs: nounwind uwtable
define internal fastcc ptr @mul(ptr nocapture noundef writeonly %rest, ptr noundef %tok) unnamed_addr #0 {
entry:
  %tok.addr = alloca ptr, align 8
  store ptr %tok, ptr %tok.addr, align 8
  %call = call fastcc ptr @cast(ptr noundef nonnull %tok.addr, ptr noundef %tok)
  br label %for.cond

for.cond:                                         ; preds = %for.cond.backedge, %entry
  %node.0 = phi ptr [ %call, %entry ], [ %call.i.i.sink15, %for.cond.backedge ]
  %0 = load ptr, ptr %tok.addr, align 8
  %call1 = call zeroext i1 @equal(ptr noundef %0, ptr noundef nonnull @.str.20) #13
  %1 = load ptr, ptr %tok.addr, align 8
  br i1 %call1, label %if.then, label %if.end

if.then:                                          ; preds = %for.cond
  %next = getelementptr inbounds %struct.Token, ptr %1, i64 0, i32 1
  %2 = load ptr, ptr %next, align 8
  %call2 = call fastcc ptr @cast(ptr noundef nonnull %tok.addr, ptr noundef %2)
  %call.i.i = call noalias noundef dereferenceable_or_null(288) ptr @calloc(i64 noundef 1, i64 noundef 288) #14
  store i32 3, ptr %call.i.i, align 16
  br label %for.cond.backedge

for.cond.backedge:                                ; preds = %if.then, %if.then5, %if.then11
  %call.i.i.sink15 = phi ptr [ %call.i.i, %if.then ], [ %call.i.i6, %if.then5 ], [ %call.i.i10, %if.then11 ]
  %call2.sink = phi ptr [ %call2, %if.then ], [ %call7, %if.then5 ], [ %call13, %if.then11 ]
  %tok2.i.i = getelementptr inbounds %struct.Node, ptr %call.i.i.sink15, i64 0, i32 3
  store ptr %0, ptr %tok2.i.i, align 8
  %lhs1.i = getelementptr inbounds %struct.Node, ptr %call.i.i.sink15, i64 0, i32 4
  store ptr %node.0, ptr %lhs1.i, align 16
  %rhs2.i = getelementptr inbounds %struct.Node, ptr %call.i.i.sink15, i64 0, i32 5
  store ptr %call2.sink, ptr %rhs2.i, align 8
  br label %for.cond

if.end:                                           ; preds = %for.cond
  %call4 = call zeroext i1 @equal(ptr noundef %1, ptr noundef nonnull @.str.21) #13
  %3 = load ptr, ptr %tok.addr, align 8
  br i1 %call4, label %if.then5, label %if.end9

if.then5:                                         ; preds = %if.end
  %next6 = getelementptr inbounds %struct.Token, ptr %3, i64 0, i32 1
  %4 = load ptr, ptr %next6, align 8
  %call7 = call fastcc ptr @cast(ptr noundef nonnull %tok.addr, ptr noundef %4)
  %call.i.i6 = call noalias noundef dereferenceable_or_null(288) ptr @calloc(i64 noundef 1, i64 noundef 288) #14
  store i32 4, ptr %call.i.i6, align 16
  br label %for.cond.backedge

if.end9:                                          ; preds = %if.end
  %call10 = call zeroext i1 @equal(ptr noundef %3, ptr noundef nonnull @.str.22) #13
  %5 = load ptr, ptr %tok.addr, align 8
  br i1 %call10, label %if.then11, label %if.end15

if.then11:                                        ; preds = %if.end9
  %next12 = getelementptr inbounds %struct.Token, ptr %5, i64 0, i32 1
  %6 = load ptr, ptr %next12, align 8
  %call13 = call fastcc ptr @cast(ptr noundef nonnull %tok.addr, ptr noundef %6)
  %call.i.i10 = call noalias noundef dereferenceable_or_null(288) ptr @calloc(i64 noundef 1, i64 noundef 288) #14
  store i32 6, ptr %call.i.i10, align 16
  br label %for.cond.backedge

if.end15:                                         ; preds = %if.end9
  store ptr %5, ptr %rest, align 8
  ret ptr %node.0
}